target datalayout = "e-m:e-p270:32:32-p271:32:32-p272:64:64-i64:64-f80:128-n8:16:32:64-S128"
target triple = "x86_64-pc-linux-gnu"

@.str = private unnamed_addr constant [3 x i8] c"%d\00", align 1
@.str.1 = private unnamed_addr constant [3 x i8] c"%c\00", align 1
@a = common dso_local global [200 x i8] zeroinitializer, align 16

; Function Attrs: noinline nounwind uwtable
define dso_local void @match(i8* %0) #0 {
  %2 = alloca i8*, align 8
  %3 = alloca i32, align 4
  %4 = alloca i32, align 4
  %5 = alloca i32, align 4
  %6 = alloca i32, align 4
  store i8* %0, i8** %2, align 8
  %7 = load i8*, i8** %2, align 8
  %8 = call i64 @strlen(i8* %7) #3
  %9 = trunc i64 %8 to i32
  store i32 %9, i32* %3, align 4
  %10 = load i32, i32* %3, align 4
  %11 = icmp eq i32 %10, 0
  br i1 %11, label %12, label %13

12:                                               ; preds = %1
  br label %84

13:                                               ; preds = %1
  store i32 0, i32* %6, align 4
  store i32 0, i32* %4, align 4
  br label %14

14:                                               ; preds = %64, %13
  %15 = load i32, i32* %4, align 4
  %16 = load i32, i32* %3, align 4
  %17 = sub nsw i32 %16, 1
  %18 = icmp slt i32 %15, %17
  br i1 %18, label %19, label %67

19:                                               ; preds = %14
  %20 = load i8*, i8** %2, align 8
  %21 = load i32, i32* %4, align 4
  %22 = sext i32 %21 to i64
  %23 = getelementptr inbounds i8, i8* %20, i64 %22
  %24 = load i8, i8* %23, align 1
  %25 = sext i8 %24 to i32
  %26 = icmp eq i32 %25, 40
  br i1 %26, label %27, label %63

27:                                               ; preds = %19
  %28 = load i32, i32* %4, align 4
  %29 = add nsw i32 %28, 1
  store i32 %29, i32* %5, align 4
  br label %30

30:                                               ; preds = %45, %27
  %31 = load i32, i32* %5, align 4
  %32 = load i32, i32* %3, align 4
  %33 = icmp slt i32 %31, %32
  br i1 %33, label %34, label %42

34:                                               ; preds = %30
  %35 = load i8*, i8** %2, align 8
  %36 = load i32, i32* %5, align 4
  %37 = sext i32 %36 to i64
  %38 = getelementptr inbounds i8, i8* %35, i64 %37
  %39 = load i8, i8* %38, align 1
  %40 = sext i8 %39 to i32
  %41 = icmp eq i32 %40, 32
  br label %42

42:                                               ; preds = %34, %30
  %43 = phi i1 [ false, %30 ], [ %41, %34 ]
  br i1 %43, label %44, label %48

44:                                               ; preds = %42
  br label %45

45:                                               ; preds = %44
  %46 = load i32, i32* %5, align 4
  %47 = add nsw i32 %46, 1
  store i32 %47, i32* %5, align 4
  br label %30

48:                                               ; preds = %42
  %49 = load i32, i32* %5, align 4
  %50 = load i32, i32* %3, align 4
  %51 = icmp slt i32 %49, %50
  br i1 %51, label %52, label %62

52:                                               ; preds = %48
  %53 = load i8*, i8** %2, align 8
  %54 = load i32, i32* %5, align 4
  %55 = sext i32 %54 to i64
  %56 = getelementptr inbounds i8, i8* %53, i64 %55
  %57 = load i8, i8* %56, align 1
  %58 = sext i8 %57 to i32
  %59 = icmp eq i32 %58, 41
  br i1 %59, label %60, label %61

60:                                               ; preds = %52
  store i32 1, i32* %6, align 4
  br label %67

61:                                               ; preds = %52
  br label %62

62:                                               ; preds = %61, %48
  br label %63

63:                                               ; preds = %62, %19
  br label %64

64:                                               ; preds = %63
  %65 = load i32, i32* %4, align 4
  %66 = add nsw i32 %65, 1
  store i32 %66, i32* %4, align 4
  br label %14

67:                                               ; preds = %60, %14
  %68 = load i32, i32* %6, align 4
  %69 = icmp eq i32 %68, 1
  br i1 %69, label %70, label %80

70:                                               ; preds = %67
  %71 = load i8*, i8** %2, align 8
  %72 = load i32, i32* %4, align 4
  %73 = sext i32 %72 to i64
  %74 = getelementptr inbounds i8, i8* %71, i64 %73
  store i8 32, i8* %74, align 1
  %75 = load i8*, i8** %2, align 8
  %76 = load i32, i32* %5, align 4
  %77 = sext i32 %76 to i64
  %78 = getelementptr inbounds i8, i8* %75, i64 %77
  store i8 32, i8* %78, align 1
  %79 = load i8*, i8** %2, align 8
  call void @match(i8* %79)
  br label %80

80:                                               ; preds = %70, %67
  %81 = load i32, i32* %6, align 4
  %82 = icmp eq i32 %81, 0
  br i1 %82, label %83, label %84

83:                                               ; preds = %80
  br label %84

84:                                               ; preds = %12, %83, %80
  ret void
}

; Function Attrs: noinline nounwind uwtable
define dso_local i32 @main() #0 {
  %1 = alloca i32, align 4
  %2 = alloca i32, align 4
  %3 = alloca i8, align 1
  %4 = alloca i32, align 4
  %5 = alloca i32, align 4
  store i32 0, i32* %1, align 4
  %6 = call i32 (i8*, ...) @__isoc99_scanf(i8* getelementptr inbounds ([3 x i8], [3 x i8]* @.str, i64 0, i64 0), i32* %2)
  %7 = call i32 (i8*, ...) @__isoc99_scanf(i8* getelementptr inbounds ([3 x i8], [3 x i8]* @.str.1, i64 0, i64 0), i8* %3)
  br label %8

8:                                                ; preds = %75, %0
  %9 = load i32, i32* %2, align 4
  %10 = add nsw i32 %9, -1
  store i32 %10, i32* %2, align 4
  %11 = icmp ne i32 %9, 0
  br i1 %11, label %12, label %77

12:                                               ; preds = %8
  %13 = call i32 (i8*, ...) bitcast (i32 (...)* @gets to i32 (i8*, ...)*)(i8* getelementptr inbounds ([200 x i8], [200 x i8]* @a, i64 0, i64 0))
  %14 = call i32 @puts(i8* getelementptr inbounds ([200 x i8], [200 x i8]* @a, i64 0, i64 0))
  %15 = call i64 @strlen(i8* getelementptr inbounds ([200 x i8], [200 x i8]* @a, i64 0, i64 0)) #3
  %16 = trunc i64 %15 to i32
  store i32 %16, i32* %4, align 4
  store i32 0, i32* %5, align 4
  br label %17

17:                                               ; preds = %40, %12
  %18 = load i32, i32* %5, align 4
  %19 = load i32, i32* %4, align 4
  %20 = icmp slt i32 %18, %19
  br i1 %20, label %21, label %43

21:                                               ; preds = %17
  %22 = load i32, i32* %5, align 4
  %23 = sext i32 %22 to i64
  %24 = getelementptr inbounds [200 x i8], [200 x i8]* @a, i64 0, i64 %23
  %25 = load i8, i8* %24, align 1
  %26 = sext i8 %25 to i32
  %27 = icmp ne i32 %26, 40
  br i1 %27, label %28, label %39

28:                                               ; preds = %21
  %29 = load i32, i32* %5, align 4
  %30 = sext i32 %29 to i64
  %31 = getelementptr inbounds [200 x i8], [200 x i8]* @a, i64 0, i64 %30
  %32 = load i8, i8* %31, align 1
  %33 = sext i8 %32 to i32
  %34 = icmp ne i32 %33, 41
  br i1 %34, label %35, label %39

35:                                               ; preds = %28
  %36 = load i32, i32* %5, align 4
  %37 = sext i32 %36 to i64
  %38 = getelementptr inbounds [200 x i8], [200 x i8]* @a, i64 0, i64 %37
  store i8 32, i8* %38, align 1
  br label %39

39:                                               ; preds = %35, %28, %21
  br label %40

40:                                               ; preds = %39
  %41 = load i32, i32* %5, align 4
  %42 = add nsw i32 %41, 1
  store i32 %42, i32* %5, align 4
  br label %17

43:                                               ; preds = %17
  call void @match(i8* getelementptr inbounds ([200 x i8], [200 x i8]* @a, i64 0, i64 0))
  store i32 0, i32* %5, align 4
  br label %44

44:                                               ; preds = %72, %43
  %45 = load i32, i32* %5, align 4
  %46 = load i32, i32* %4, align 4
  %47 = icmp slt i32 %45, %46
  br i1 %47, label %48, label %75

48:                                               ; preds = %44
  %49 = load i32, i32* %5, align 4
  %50 = sext i32 %49 to i64
  %51 = getelementptr inbounds [200 x i8], [200 x i8]* @a, i64 0, i64 %50
  %52 = load i8, i8* %51, align 1
  %53 = sext i8 %52 to i32
  %54 = icmp eq i32 %53, 40
  br i1 %54, label %55, label %59

55:                                               ; preds = %48
  %56 = load i32, i32* %5, align 4
  %57 = sext i32 %56 to i64
  %58 = getelementptr inbounds [200 x i8], [200 x i8]* @a, i64 0, i64 %57
  store i8 36, i8* %58, align 1
  br label %71

59:                                               ; preds = %48
  %60 = load i32, i32* %5, align 4
  %61 = sext i32 %60 to i64
  %62 = getelementptr inbounds [200 x i8], [200 x i8]* @a, i64 0, i64 %61
  %63 = load i8, i8* %62, align 1
  %64 = sext i8 %63 to i32
  %65 = icmp eq i32 %64, 41
  br i1 %65, label %66, label %70

66:                                               ; preds = %59
  %67 = load i32, i32* %5, align 4
  %68 = sext i32 %67 to i64
  %69 = getelementptr inbounds [200 x i8], [200 x i8]* @a, i64 0, i64 %68
  store i8 63, i8* %69, align 1
  br label %70

70:                                               ; preds = %66, %59
  br label %71

71:                                               ; preds = %70, %55
  br label %72

72:                                               ; preds = %71
  %73 = load i32, i32* %5, align 4
  %74 = add nsw i32 %73, 1
  store i32 %74, i32* %5, align 4
  br label %44

75:                                               ; preds = %44
  %76 = call i32 @puts(i8* getelementptr inbounds ([200 x i8], [200 x i8]* @a, i64 0, i64 0))
  br label %8

77:                                               ; preds = %8
  ret i32 0
}